target datalayout = "e-m:e-p270:32:32-p271:32:32-p272:64:64-i64:64-i128:128-f80:128-n8:16:32:64-S128"
target triple = "x86_64-pc-linux-gnu"

%struct.pmix_tma = type { ptr, ptr, ptr, ptr, ptr, ptr, ptr, ptr }
%union.pthread_mutex_t = type { %struct.__pthread_mutex_s }
%struct.__pthread_mutex_s = type { i32, i32, i32, i32, i32, i16, i16, %struct.__pthread_internal_list }
%struct.__pthread_internal_list = type { ptr, ptr }
%struct.pmix_object_t = type { %union.pthread_mutex_t, ptr, i32, %struct.pmix_tma }
%struct.pmix_list_item_t = type { %struct.pmix_object_t, ptr, ptr, i32 }
%struct.pmix_rank_info_t = type { %struct.pmix_list_item_t, i32, %struct.pmix_name_t, i32, i32, i8, i32, ptr }
%struct.pmix_name_t = type { ptr, i32 }

; Function Attrs: nounwind uwtable
define internal void @info_con(ptr noundef %0) #0 {
  %2 = alloca ptr, align 8
  store ptr %0, ptr %2, align 8, !tbaa !74
  %3 = load ptr, ptr %2, align 8, !tbaa !74
  %4 = getelementptr inbounds nuw %struct.pmix_rank_info_t, ptr %3, i32 0, i32 1
  store i32 -1, ptr %4, align 8, !tbaa !76
  %5 = load ptr, ptr %2, align 8, !tbaa !74
  %6 = getelementptr inbounds nuw %struct.pmix_rank_info_t, ptr %5, i32 0, i32 3
  store i32 0, ptr %6, align 8, !tbaa !79
  %7 = load ptr, ptr %2, align 8, !tbaa !74
  %8 = getelementptr inbounds nuw %struct.pmix_rank_info_t, ptr %7, i32 0, i32 4
  store i32 0, ptr %8, align 4, !tbaa !80
  %9 = load ptr, ptr %2, align 8, !tbaa !74
  %10 = getelementptr inbounds nuw %struct.pmix_rank_info_t, ptr %9, i32 0, i32 2
  %11 = getelementptr inbounds nuw %struct.pmix_name_t, ptr %10, i32 0, i32 0
  store ptr null, ptr %11, align 8, !tbaa !81
  %12 = load ptr, ptr %2, align 8, !tbaa !74
  %13 = getelementptr inbounds nuw %struct.pmix_rank_info_t, ptr %12, i32 0, i32 2
  %14 = getelementptr inbounds nuw %struct.pmix_name_t, ptr %13, i32 0, i32 1
  store i32 -1, ptr %14, align 8, !tbaa !82
  %15 = load ptr, ptr %2, align 8, !tbaa !74
  %16 = getelementptr inbounds nuw %struct.pmix_rank_info_t, ptr %15, i32 0, i32 5
  store i8 0, ptr %16, align 8, !tbaa !83
  %17 = load ptr, ptr %2, align 8, !tbaa !74
  %18 = getelementptr inbounds nuw %struct.pmix_rank_info_t, ptr %17, i32 0, i32 6
  store i32 0, ptr %18, align 4, !tbaa !84
  %19 = load ptr, ptr %2, align 8, !tbaa !74
  %20 = getelementptr inbounds nuw %struct.pmix_rank_info_t, ptr %19, i32 0, i32 7
  store ptr null, ptr %20, align 8, !tbaa !85
  ret void
}