; Function Attrs: mustprogress nofree norecurse nosync nounwind willreturn memory(argmem: write) uwtable
define internal void @info_con(ptr noundef writeonly captures(none) initializes((144, 148), (152, 164), (168, 177), (180, 192)) %0) #1 {
  %2 = getelementptr inbounds nuw i8, ptr %0, i64 144
  store i32 -1, ptr %2, align 8, !tbaa !82
  %3 = getelementptr inbounds nuw i8, ptr %0, i64 168
  store i32 0, ptr %3, align 8, !tbaa !85
  %4 = getelementptr inbounds nuw i8, ptr %0, i64 172
  store i32 0, ptr %4, align 4, !tbaa !86
  %5 = getelementptr inbounds nuw i8, ptr %0, i64 152
  store ptr null, ptr %5, align 8, !tbaa !87
  %6 = getelementptr inbounds nuw i8, ptr %0, i64 160
  store i32 -1, ptr %6, align 8, !tbaa !88
  %7 = getelementptr inbounds nuw i8, ptr %0, i64 176
  store i8 0, ptr %7, align 8, !tbaa !89
  %8 = getelementptr inbounds nuw i8, ptr %0, i64 180
  store i32 0, ptr %8, align 4, !tbaa !90
  %9 = getelementptr inbounds nuw i8, ptr %0, i64 184
  store ptr null, ptr %9, align 8, !tbaa !91
  ret void
}